target datalayout = "e-m:e-p270:32:32-p271:32:32-p272:64:64-i64:64-i128:128-f80:128-n8:16:32:64-S128"
target triple = "x86_64-pc-linux-gnu"

@.str.51 = private unnamed_addr constant [16 x i8] c"table or string\00", align 1

; Function Attrs: nounwind uwtable
define internal i32 @luaB_rawlen(ptr noundef %0) #0 {
  %2 = alloca ptr, align 8
  %3 = alloca i32, align 4
  store ptr %0, ptr %2, align 8, !tbaa !4
  call void @llvm.lifetime.start.p0(i64 4, ptr %3) #6
  %4 = load ptr, ptr %2, align 8, !tbaa !4
  %5 = call i32 @lua_type(ptr noundef %4, i32 noundef 1)
  store i32 %5, ptr %3, align 4, !tbaa !10
  %6 = load i32, ptr %3, align 4, !tbaa !10
  %7 = icmp eq i32 %6, 5
  br i1 %7, label %11, label %8

8:                                                ; preds = %1
  %9 = load i32, ptr %3, align 4, !tbaa !10
  %10 = icmp eq i32 %9, 4
  br label %11

11:                                               ; preds = %8, %1
  %12 = phi i1 [ true, %1 ], [ %10, %8 ]
  %13 = zext i1 %12 to i32
  %14 = icmp ne i32 %13, 0
  %15 = zext i1 %14 to i32
  %16 = sext i32 %15 to i64
  %17 = call i64 @llvm.expect.i64(i64 %16, i64 1)
  %18 = icmp ne i64 %17, 0
  br i1 %18, label %22, label %19

19:                                               ; preds = %11
  %20 = load ptr, ptr %2, align 8, !tbaa !4
  %21 = call i32 @luaL_typeerror(ptr noundef %20, i32 noundef 1, ptr noundef @.str.51)
  br label %22

22:                                               ; preds = %19, %11
  %23 = load ptr, ptr %2, align 8, !tbaa !4
  %24 = load ptr, ptr %2, align 8, !tbaa !4
  %25 = call i64 @lua_rawlen(ptr noundef %24, i32 noundef 1)
  call void @lua_pushinteger(ptr noundef %23, i64 noundef %25)
  call void @llvm.lifetime.end.p0(i64 4, ptr %3) #6
  ret i32 1
}