; Function Attrs: nounwind uwtable
define internal noundef i32 @luaB_rawlen(ptr noundef %0) #0 {
  %2 = tail call i32 @lua_type(ptr noundef %0, i32 noundef 1) #9
  %3 = and i32 %2, -2
  %4 = icmp eq i32 %3, 4
  br i1 %4, label %7, label %5, !prof !8

5:                                                ; preds = %1
  %6 = tail call i32 @luaL_typeerror(ptr noundef %0, i32 noundef 1, ptr noundef nonnull @.str.51) #9
  br label %7

7:                                                ; preds = %5, %1
  %8 = tail call i64 @lua_rawlen(ptr noundef %0, i32 noundef 1) #9
  tail call void @lua_pushinteger(ptr noundef %0, i64 noundef %8) #9
  ret i32 1
}